; Function Attrs: nounwind uwtable
define ptr @l_Array_foldlMUnsafe_fold___at_Lean_PrettyPrinter_Formatter_interpolatedStr_formatter___spec__1___boxed(ptr noundef %0, ptr noundef %1, ptr noundef %2, ptr noundef %3, ptr noundef %4, ptr noundef %5, ptr noundef %6, ptr noundef %7, ptr noundef %8, ptr noundef %9) #0 {
  %11 = getelementptr i8, ptr %2, i64 8
  %.val21 = load i64, ptr %11, align 8, !tbaa !13
  %12 = ptrtoint ptr %2 to i64
  %13 = and i64 %12, 1
  %.not = icmp eq i64 %13, 0
  br i1 %.not, label %14, label %lean_dec.exit16

14:                                               ; preds = %10
  %15 = load i32, ptr %2, align 4, !tbaa !8
  %16 = icmp sgt i32 %15, 1
  br i1 %16, label %17, label %19, !prof !11

17:                                               ; preds = %14
  %18 = add nsw i32 %15, -1
  store i32 %18, ptr %2, align 4, !tbaa !8
  br label %lean_dec.exit16

19:                                               ; preds = %14
  %.not.i = icmp eq i32 %15, 0
  br i1 %.not.i, label %lean_dec.exit16, label %20

20:                                               ; preds = %19
  tail call void @lean_dec_ref_cold(ptr noundef nonnull %2) #6
  br label %lean_dec.exit16

lean_dec.exit16:                                  ; preds = %20, %19, %17, %10
  %21 = getelementptr i8, ptr %3, i64 8
  %.val = load i64, ptr %21, align 8, !tbaa !13
  %22 = ptrtoint ptr %3 to i64
  %23 = and i64 %22, 1
  %.not22 = icmp eq i64 %23, 0
  br i1 %.not22, label %24, label %lean_dec.exit15

24:                                               ; preds = %lean_dec.exit16
  %25 = load i32, ptr %3, align 4, !tbaa !8
  %26 = icmp sgt i32 %25, 1
  br i1 %26, label %27, label %29, !prof !11

27:                                               ; preds = %24
  %28 = add nsw i32 %25, -1
  store i32 %28, ptr %3, align 4, !tbaa !8
  br label %lean_dec.exit15

29:                                               ; preds = %24
  %.not.i17 = icmp eq i32 %25, 0
  br i1 %.not.i17, label %lean_dec.exit15, label %30

30:                                               ; preds = %29
  tail call void @lean_dec_ref_cold(ptr noundef nonnull %3) #6
  br label %lean_dec.exit15

lean_dec.exit15:                                  ; preds = %30, %29, %27, %lean_dec.exit16
  %31 = tail call ptr @l_Array_foldlMUnsafe_fold___at_Lean_PrettyPrinter_Formatter_interpolatedStr_formatter___spec__1(ptr noundef %0, ptr noundef %1, i64 noundef %.val21, i64 noundef %.val, ptr noundef %4, ptr noundef %5, ptr noundef %6, ptr noundef %7, ptr noundef %8, ptr noundef %9)
  %32 = ptrtoint ptr %1 to i64
  %33 = and i64 %32, 1
  %.not23 = icmp eq i64 %33, 0
  br i1 %.not23, label %34, label %lean_dec.exit

34:                                               ; preds = %lean_dec.exit15
  %35 = load i32, ptr %1, align 4, !tbaa !8
  %36 = icmp sgt i32 %35, 1
  br i1 %36, label %37, label %39, !prof !11

37:                                               ; preds = %34
  %38 = add nsw i32 %35, -1
  store i32 %38, ptr %1, align 4, !tbaa !8
  br label %lean_dec.exit

39:                                               ; preds = %34
  %.not.i19 = icmp eq i32 %35, 0
  br i1 %.not.i19, label %lean_dec.exit, label %40

40:                                               ; preds = %39
  tail call void @lean_dec_ref_cold(ptr noundef nonnull %1) #6
  br label %lean_dec.exit

lean_dec.exit:                                    ; preds = %40, %39, %37, %lean_dec.exit15
  ret ptr %31
}